target datalayout = "e-m:e-p270:32:32-p271:32:32-p272:64:64-i64:64-i128:128-f80:128-n8:16:32:64-S128"
target triple = "x86_64-pc-linux-gnu"

; Function Attrs: nounwind uwtable
define internal i64 @H5VM_vector_reduce_product(i32 noundef %0, ptr noundef %1) #0 {
  %3 = alloca i32, align 4
  %4 = alloca ptr, align 8
  %5 = alloca i64, align 8
  store i32 %0, ptr %3, align 4
  store ptr %1, ptr %4, align 8
  store i64 1, ptr %5, align 8
  %6 = load i32, ptr %3, align 4
  %7 = icmp ne i32 %6, 0
  br i1 %7, label %8, label %14

8:                                                ; preds = %2
  %9 = load ptr, ptr %4, align 8
  %10 = icmp ne ptr %9, null
  br i1 %10, label %14, label %11

11:                                               ; preds = %8
  br label %12

12:                                               ; preds = %11
  store i64 0, ptr %5, align 8
  br label %26

13:                                               ; No predecessors!
  br label %14

14:                                               ; preds = %13, %8, %2
  br label %15

15:                                               ; preds = %19, %14
  %16 = load i32, ptr %3, align 4
  %17 = add i32 %16, -1
  store i32 %17, ptr %3, align 4
  %18 = icmp ne i32 %16, 0
  br i1 %18, label %19, label %25

19:                                               ; preds = %15
  %20 = load ptr, ptr %4, align 8
  %21 = getelementptr inbounds i64, ptr %20, i32 1
  store ptr %21, ptr %4, align 8
  %22 = load i64, ptr %20, align 8
  %23 = load i64, ptr %5, align 8
  %24 = mul i64 %23, %22
  store i64 %24, ptr %5, align 8
  br label %15

25:                                               ; preds = %15
  br label %26

26:                                               ; preds = %25, %12
  %27 = load i64, ptr %5, align 8
  ret i64 %27
}

; Function Attrs: nounwind uwtable
define i32 @H5VM_stride_copy(i32 noundef %0, i64 noundef %1, ptr noundef %2, ptr noundef %3, ptr noundef %4, ptr noundef %5, ptr noundef %6) #0 {
  %8 = alloca i32, align 4
  %9 = alloca i64, align 8
  %10 = alloca ptr, align 8
  %11 = alloca ptr, align 8
  %12 = alloca ptr, align 8
  %13 = alloca ptr, align 8
  %14 = alloca ptr, align 8
  %15 = alloca ptr, align 8
  %16 = alloca ptr, align 8
  %17 = alloca [33 x i64], align 16
  %18 = alloca i64, align 8
  %19 = alloca i64, align 8
  %20 = alloca i32, align 4
  %21 = alloca i8, align 1
  store i32 %0, ptr %8, align 4
  store i64 %1, ptr %9, align 8
  store ptr %2, ptr %10, align 8
  store ptr %3, ptr %11, align 8
  store ptr %4, ptr %12, align 8
  store ptr %5, ptr %13, align 8
  store ptr %6, ptr %14, align 8
  %22 = load ptr, ptr %12, align 8
  store ptr %22, ptr %15, align 8
  %23 = load ptr, ptr %14, align 8
  store ptr %23, ptr %16, align 8
  %24 = load i32, ptr %8, align 4
  %25 = icmp ne i32 %24, 0
  br i1 %25, label %26, label %104

26:                                               ; preds = %7
  br label %27

27:                                               ; preds = %26
  %28 = load ptr, ptr %10, align 8
  %29 = icmp ne ptr %28, null
  br i1 %29, label %30, label %36

30:                                               ; preds = %27
  %31 = getelementptr inbounds [33 x i64], ptr %17, i64 0, i64 0
  %32 = load ptr, ptr %10, align 8
  %33 = load i32, ptr %8, align 4
  %34 = zext i32 %33 to i64
  %35 = mul i64 %34, 8
  call void @llvm.memcpy.p0.p0.i64(ptr align 16 %31, ptr align 8 %32, i64 %35, i1 false)
  br label %41

36:                                               ; preds = %27
  %37 = getelementptr inbounds [33 x i64], ptr %17, i64 0, i64 0
  %38 = load i32, ptr %8, align 4
  %39 = zext i32 %38 to i64
  %40 = mul i64 %39, 8
  call void @llvm.memset.p0.i64(ptr align 16 %37, i8 0, i64 %40, i1 false)
  br label %41

41:                                               ; preds = %36, %30
  br label %42

42:                                               ; preds = %41
  %43 = load i32, ptr %8, align 4
  %44 = load ptr, ptr %10, align 8
  %45 = call i64 @H5VM_vector_reduce_product(i32 noundef %43, ptr noundef %44)
  store i64 %45, ptr %18, align 8
  store i64 0, ptr %19, align 8
  br label %46

46:                                               ; preds = %100, %42
  %47 = load i64, ptr %19, align 8
  %48 = load i64, ptr %18, align 8
  %49 = icmp ult i64 %47, %48
  br i1 %49, label %50, label %103

50:                                               ; preds = %46
  %51 = load ptr, ptr %15, align 8
  %52 = load ptr, ptr %16, align 8
  %53 = load i64, ptr %9, align 8
  call void @llvm.memcpy.p0.p0.i64(ptr align 1 %51, ptr align 1 %52, i64 %53, i1 false)
  %54 = load i32, ptr %8, align 4
  %55 = sub i32 %54, 1
  store i32 %55, ptr %20, align 4
  store i8 1, ptr %21, align 1
  br label %56

56:                                               ; preds = %96, %50
  %57 = load i32, ptr %20, align 4
  %58 = icmp sge i32 %57, 0
  br i1 %58, label %59, label %62

59:                                               ; preds = %56
  %60 = load i8, ptr %21, align 1
  %61 = trunc i8 %60 to i1
  br label %62

62:                                               ; preds = %59, %56
  %63 = phi i1 [ false, %56 ], [ %61, %59 ]
  br i1 %63, label %64, label %99

64:                                               ; preds = %62
  %65 = load ptr, ptr %13, align 8
  %66 = load i32, ptr %20, align 4
  %67 = sext i32 %66 to i64
  %68 = getelementptr inbounds i64, ptr %65, i64 %67
  %69 = load i64, ptr %68, align 8
  %70 = load ptr, ptr %16, align 8
  %71 = getelementptr inbounds i8, ptr %70, i64 %69
  store ptr %71, ptr %16, align 8
  %72 = load ptr, ptr %11, align 8
  %73 = load i32, ptr %20, align 4
  %74 = sext i32 %73 to i64
  %75 = getelementptr inbounds i64, ptr %72, i64 %74
  %76 = load i64, ptr %75, align 8
  %77 = load ptr, ptr %15, align 8
  %78 = getelementptr inbounds i8, ptr %77, i64 %76
  store ptr %78, ptr %15, align 8
  %79 = load i32, ptr %20, align 4
  %80 = sext i32 %79 to i64
  %81 = getelementptr inbounds [33 x i64], ptr %17, i64 0, i64 %80
  %82 = load i64, ptr %81, align 8
  %83 = add i64 %82, -1
  store i64 %83, ptr %81, align 8
  %84 = icmp ne i64 %83, 0
  br i1 %84, label %85, label %86

85:                                               ; preds = %64
  store i8 0, ptr %21, align 1
  br label %95

86:                                               ; preds = %64
  %87 = load ptr, ptr %10, align 8
  %88 = load i32, ptr %20, align 4
  %89 = sext i32 %88 to i64
  %90 = getelementptr inbounds i64, ptr %87, i64 %89
  %91 = load i64, ptr %90, align 8
  %92 = load i32, ptr %20, align 4
  %93 = sext i32 %92 to i64
  %94 = getelementptr inbounds [33 x i64], ptr %17, i64 0, i64 %93
  store i64 %91, ptr %94, align 8
  br label %95

95:                                               ; preds = %86, %85
  br label %96

96:                                               ; preds = %95
  %97 = load i32, ptr %20, align 4
  %98 = add nsw i32 %97, -1
  store i32 %98, ptr %20, align 4
  br label %56

99:                                               ; preds = %62
  br label %100

100:                                              ; preds = %99
  %101 = load i64, ptr %19, align 8
  %102 = add i64 %101, 1
  store i64 %102, ptr %19, align 8
  br label %46

103:                                              ; preds = %46
  br label %108

104:                                              ; preds = %7
  %105 = load ptr, ptr %15, align 8
  %106 = load ptr, ptr %16, align 8
  %107 = load i64, ptr %9, align 8
  call void @llvm.memcpy.p0.p0.i64(ptr align 1 %105, ptr align 1 %106, i64 %107, i1 false)
  br label %108

108:                                              ; preds = %104, %103
  ret i32 0
}