; Function Attrs: nofree norecurse nosync nounwind memory(readwrite, inaccessiblemem: none) uwtable
define noundef i32 @H5VM_stride_copy(i32 noundef %0, i64 noundef %1, ptr noundef readonly %2, ptr nocapture noundef readonly %3, ptr nocapture noundef writeonly %4, ptr nocapture noundef readonly %5, ptr nocapture noundef readonly %6) local_unnamed_addr #2 {
  %8 = alloca [33 x i64], align 16
  %.not = icmp eq i32 %0, 0
  br i1 %.not, label %35, label %9

9:                                                ; preds = %7
  %.not41 = icmp eq ptr %2, null
  br i1 %.not41, label %.loopexit, label %.split38

.split38:                                         ; preds = %9
  %10 = zext i32 %0 to i64
  %11 = shl nuw nsw i64 %10, 3
  call void @llvm.memcpy.p0.p0.i64(ptr nonnull align 16 %8, ptr nonnull align 8 %2, i64 %11, i1 false)
  br label %.lr.ph.i

.lr.ph.i:                                         ; preds = %.split38, %.lr.ph.i
  %.011.i = phi i64 [ %15, %.lr.ph.i ], [ 1, %.split38 ]
  %.0610.i = phi ptr [ %13, %.lr.ph.i ], [ %2, %.split38 ]
  %.079.i = phi i32 [ %12, %.lr.ph.i ], [ %0, %.split38 ]
  %12 = add i32 %.079.i, -1
  %13 = getelementptr inbounds i8, ptr %.0610.i, i64 8
  %14 = load i64, ptr %.0610.i, align 8
  %15 = mul i64 %14, %.011.i
  %.not.i = icmp eq i32 %12, 0
  br i1 %.not.i, label %H5VM_vector_reduce_product.exit, label %.lr.ph.i

H5VM_vector_reduce_product.exit:                  ; preds = %.lr.ph.i
  %.not62 = icmp eq i64 %15, 0
  br i1 %.not62, label %.loopexit, label %.lr.ph61

.lr.ph61:                                         ; preds = %H5VM_vector_reduce_product.exit
  %.03152 = add i32 %0, -1
  %16 = icmp sgt i32 %.03152, -1
  br i1 %16, label %.lr.ph.us.preheader, label %.lr.ph61.split

.lr.ph.us.preheader:                              ; preds = %.lr.ph61
  %17 = zext nneg i32 %.03152 to i64
  br label %.lr.ph.us

.lr.ph.us:                                        ; preds = %.lr.ph.us.preheader, %._crit_edge.us
  %.03260.us = phi i64 [ %33, %._crit_edge.us ], [ 0, %.lr.ph.us.preheader ]
  %.03359.us = phi ptr [ %24, %._crit_edge.us ], [ %4, %.lr.ph.us.preheader ]
  %.03558.us = phi ptr [ %21, %._crit_edge.us ], [ %6, %.lr.ph.us.preheader ]
  tail call void @llvm.memcpy.p0.p0.i64(ptr align 1 %.03359.us, ptr align 1 %.03558.us, i64 %1, i1 false)
  br label %18

18:                                               ; preds = %.lr.ph.us, %28
  %indvars.iv = phi i64 [ %17, %.lr.ph.us ], [ %indvars.iv.next, %28 ]
  %.13454.us = phi ptr [ %.03359.us, %.lr.ph.us ], [ %24, %28 ]
  %.13653.us = phi ptr [ %.03558.us, %.lr.ph.us ], [ %21, %28 ]
  %19 = getelementptr inbounds i64, ptr %5, i64 %indvars.iv
  %20 = load i64, ptr %19, align 8
  %21 = getelementptr inbounds i8, ptr %.13653.us, i64 %20
  %22 = getelementptr inbounds i64, ptr %3, i64 %indvars.iv
  %23 = load i64, ptr %22, align 8
  %24 = getelementptr inbounds i8, ptr %.13454.us, i64 %23
  %25 = getelementptr inbounds [33 x i64], ptr %8, i64 0, i64 %indvars.iv
  %26 = load i64, ptr %25, align 8
  %27 = add i64 %26, -1
  store i64 %27, ptr %25, align 8
  %.not42.us = icmp eq i64 %27, 0
  br i1 %.not42.us, label %28, label %._crit_edge.us

28:                                               ; preds = %18
  %29 = getelementptr inbounds i64, ptr %2, i64 %indvars.iv
  %30 = load i64, ptr %29, align 8
  store i64 %30, ptr %25, align 8
  %indvars.iv.next = add nsw i64 %indvars.iv, -1
  %31 = icmp sgt i64 %indvars.iv, 0
  %32 = and i1 %31, %.not42.us
  br i1 %32, label %18, label %._crit_edge.us

._crit_edge.us:                                   ; preds = %18, %28
  %33 = add nuw i64 %.03260.us, 1
  %exitcond66.not = icmp eq i64 %33, %15
  br i1 %exitcond66.not, label %.loopexit, label %.lr.ph.us

.lr.ph61.split:                                   ; preds = %.lr.ph61, %.lr.ph61.split
  %.03260 = phi i64 [ %34, %.lr.ph61.split ], [ 0, %.lr.ph61 ]
  tail call void @llvm.memcpy.p0.p0.i64(ptr align 1 %4, ptr align 1 %6, i64 %1, i1 false)
  %34 = add nuw i64 %.03260, 1
  %exitcond.not = icmp eq i64 %34, %15
  br i1 %exitcond.not, label %.loopexit, label %.lr.ph61.split

35:                                               ; preds = %7
  tail call void @llvm.memcpy.p0.p0.i64(ptr align 1 %4, ptr align 1 %6, i64 %1, i1 false)
  br label %.loopexit

.loopexit:                                        ; preds = %.lr.ph61.split, %._crit_edge.us, %9, %H5VM_vector_reduce_product.exit, %35
  ret i32 0
}